; Function Attrs: mustprogress nofree norecurse nosync nounwind willreturn memory(argmem: read) uwtable
define hidden zeroext i1 @phar_metadata_tracker_has_data(ptr nocapture noundef readonly %0, i32 noundef %1) local_unnamed_addr #7 {
  %3 = getelementptr inbounds i8, ptr %0, i64 8
  %4 = load i8, ptr %3, align 8
  %5 = icmp eq i8 %4, 0
  br i1 %5, label %6, label %10

6:                                                ; preds = %2
  %7 = getelementptr inbounds i8, ptr %0, i64 16
  %8 = load ptr, ptr %7, align 8
  %9 = icmp ne ptr %8, null
  br label %10

10:                                               ; preds = %6, %2
  %11 = phi i1 [ true, %2 ], [ %9, %6 ]
  ret i1 %11
}